target datalayout = "e-m:e-p270:32:32-p271:32:32-p272:64:64-i64:64-i128:128-f80:128-n8:16:32:64-S128"
target triple = "x86_64-pc-linux-gnu"

%struct.slurm_step_layout = type { ptr, i32, ptr, ptr, ptr, i32, ptr, i16, i16, ptr, i32, i32, ptr }

; Function Attrs: nounwind uwtable
define dso_local i32 @slurm_step_layout_destroy(ptr noundef %0) #0 {
  %2 = alloca ptr, align 8
  %3 = alloca i32, align 4
  store ptr %0, ptr %2, align 8
  call void @llvm.lifetime.start.p0(i64 4, ptr %3) #7
  store i32 0, ptr %3, align 4
  %4 = load ptr, ptr %2, align 8
  %5 = icmp ne ptr %4, null
  br i1 %5, label %6, label %39

6:                                                ; preds = %1
  %7 = load ptr, ptr %2, align 8
  %8 = getelementptr inbounds nuw %struct.slurm_step_layout, ptr %7, i32 0, i32 4
  %9 = load ptr, ptr %8, align 8
  call void @slurm_free_node_alias_addrs(ptr noundef %9)
  %10 = load ptr, ptr %2, align 8
  %11 = getelementptr inbounds nuw %struct.slurm_step_layout, ptr %10, i32 0, i32 3
  call void @slurm_xfree(ptr noundef %11)
  %12 = load ptr, ptr %2, align 8
  %13 = getelementptr inbounds nuw %struct.slurm_step_layout, ptr %12, i32 0, i32 6
  call void @slurm_xfree(ptr noundef %13)
  %14 = load ptr, ptr %2, align 8
  %15 = getelementptr inbounds nuw %struct.slurm_step_layout, ptr %14, i32 0, i32 9
  call void @slurm_xfree(ptr noundef %15)
  %16 = load ptr, ptr %2, align 8
  %17 = getelementptr inbounds nuw %struct.slurm_step_layout, ptr %16, i32 0, i32 0
  call void @slurm_xfree(ptr noundef %17)
  %18 = load ptr, ptr %2, align 8
  %19 = getelementptr inbounds nuw %struct.slurm_step_layout, ptr %18, i32 0, i32 2
  call void @slurm_xfree(ptr noundef %19)
  store i32 0, ptr %3, align 4
  br label %20

20:                                               ; preds = %33, %6
  %21 = load i32, ptr %3, align 4
  %22 = load ptr, ptr %2, align 8
  %23 = getelementptr inbounds nuw %struct.slurm_step_layout, ptr %22, i32 0, i32 5
  %24 = load i32, ptr %23, align 8
  %25 = icmp ult i32 %21, %24
  br i1 %25, label %26, label %36

26:                                               ; preds = %20
  %27 = load ptr, ptr %2, align 8
  %28 = getelementptr inbounds nuw %struct.slurm_step_layout, ptr %27, i32 0, i32 12
  %29 = load ptr, ptr %28, align 8
  %30 = load i32, ptr %3, align 4
  %31 = sext i32 %30 to i64
  %32 = getelementptr inbounds ptr, ptr %29, i64 %31
  call void @slurm_xfree(ptr noundef %32)
  br label %33

33:                                               ; preds = %26
  %34 = load i32, ptr %3, align 4
  %35 = add nsw i32 %34, 1
  store i32 %35, ptr %3, align 4
  br label %20, !llvm.loop !13

36:                                               ; preds = %20
  %37 = load ptr, ptr %2, align 8
  %38 = getelementptr inbounds nuw %struct.slurm_step_layout, ptr %37, i32 0, i32 12
  call void @slurm_xfree(ptr noundef %38)
  call void @slurm_xfree(ptr noundef %2)
  br label %39

39:                                               ; preds = %36, %1
  call void @llvm.lifetime.end.p0(i64 4, ptr %3) #7
  ret i32 0
}