; Function Attrs: nounwind uwtable
define dso_local noundef i32 @slurm_step_layout_destroy(ptr noundef %0) local_unnamed_addr #0 {
  %2 = alloca ptr, align 8
  store ptr %0, ptr %2, align 8
  %.not = icmp eq ptr %0, null
  br i1 %.not, label %20, label %3

3:                                                ; preds = %1
  %4 = getelementptr inbounds nuw i8, ptr %0, i64 32
  %5 = load ptr, ptr %4, align 8
  tail call void @slurm_free_node_alias_addrs(ptr noundef %5) #7
  %6 = getelementptr inbounds nuw i8, ptr %0, i64 24
  tail call void @slurm_xfree(ptr noundef nonnull %6) #7
  %7 = getelementptr inbounds nuw i8, ptr %0, i64 48
  tail call void @slurm_xfree(ptr noundef nonnull %7) #7
  %8 = getelementptr inbounds nuw i8, ptr %0, i64 64
  tail call void @slurm_xfree(ptr noundef nonnull %8) #7
  tail call void @slurm_xfree(ptr noundef nonnull %0) #7
  %9 = getelementptr inbounds nuw i8, ptr %0, i64 16
  tail call void @slurm_xfree(ptr noundef nonnull %9) #7
  %10 = getelementptr inbounds nuw i8, ptr %0, i64 40
  %11 = load i32, ptr %10, align 8
  %.not5 = icmp eq i32 %11, 0
  br i1 %.not5, label %._crit_edge, label %.lr.ph

.lr.ph:                                           ; preds = %3
  %12 = getelementptr inbounds nuw i8, ptr %0, i64 80
  br label %13

13:                                               ; preds = %.lr.ph, %13
  %indvars.iv = phi i64 [ 0, %.lr.ph ], [ %indvars.iv.next, %13 ]
  %14 = load ptr, ptr %12, align 8
  %15 = getelementptr inbounds nuw ptr, ptr %14, i64 %indvars.iv
  tail call void @slurm_xfree(ptr noundef %15) #7
  %indvars.iv.next = add nuw nsw i64 %indvars.iv, 1
  %16 = load i32, ptr %10, align 8
  %17 = zext i32 %16 to i64
  %18 = icmp samesign ult i64 %indvars.iv.next, %17
  br i1 %18, label %13, label %._crit_edge, !llvm.loop !21

._crit_edge:                                      ; preds = %13, %3
  %19 = getelementptr inbounds nuw i8, ptr %0, i64 80
  tail call void @slurm_xfree(ptr noundef nonnull %19) #7
  call void @slurm_xfree(ptr noundef nonnull %2) #7
  br label %20

20:                                               ; preds = %._crit_edge, %1
  ret i32 0
}